target datalayout = "e-m:e-p270:32:32-p271:32:32-p272:64:64-i64:64-i128:128-f80:128-n8:16:32:64-S128"
target triple = "x86_64-pc-linux-gnu"

%union.pthread_mutex_t = type { %struct.__pthread_mutex_s }
%struct.__pthread_mutex_s = type { i32, i32, i32, i32, i32, i16, i16, %struct.__pthread_internal_list }
%struct.__pthread_internal_list = type { ptr, ptr }
%struct.slurm_conf_t = type { i64, ptr, i16, ptr, ptr, ptr, ptr, ptr, i16, ptr, ptr, ptr, ptr, ptr, ptr, ptr, i16, ptr, ptr, ptr, ptr, i16, ptr, ptr, ptr, i64, ptr, ptr, ptr, ptr, i16, ptr, ptr, i16, i32, ptr, i32, ptr, i32, i32, ptr, ptr, i64, i64, ptr, i16, i16, ptr, i32, i32, ptr, i32, ptr, i32, i16, i16, i16, ptr, i16, i16, ptr, ptr, i32, i16, i16, ptr, i32, i16, ptr, ptr, ptr, ptr, i16, ptr, ptr, ptr, ptr, i32, ptr, ptr, ptr, ptr, i16, i16, ptr, i32, i32, i32, i16, i16, ptr, ptr, i16, ptr, ptr, i32, i32, i32, i32, i32, i64, i32, i32, i16, ptr, ptr, i32, ptr, ptr, ptr, i16, i32, ptr, ptr, i16, ptr, ptr, i32, i16, ptr, ptr, ptr, ptr, i32, i32, i16, i16, i32, ptr, i16, ptr, i32, i32, i32, i32, i32, i32, ptr, i16, ptr, ptr, i32, i16, ptr, i32, i16, i16, ptr, ptr, ptr, i16, ptr, ptr, ptr, ptr, i16, i16, ptr, i16, ptr, i16, ptr, i16, ptr, i16, ptr, ptr, ptr, ptr, i16, ptr, ptr, ptr, i32, ptr, i32, ptr, ptr, i16, ptr, ptr, i32, i16, ptr, ptr, i16, i16, ptr, i16, ptr, ptr, ptr, i32, ptr, i16, i16, ptr, ptr, ptr, ptr, ptr, ptr, ptr, ptr, i16, i32, i16, ptr, ptr, ptr, ptr, i32, ptr, ptr, ptr, i16, ptr, ptr, ptr, i16, ptr, i16, ptr, i16, i16, ptr }
%struct.slurm_bb_ops = type { ptr, ptr, ptr, ptr, ptr, ptr, ptr, ptr, ptr, ptr, ptr, ptr, ptr, ptr, ptr, ptr, ptr, ptr, ptr, ptr }

@.str = private unnamed_addr constant [13 x i8] c"burst_buffer\00", align 1
@g_context_lock = internal global %union.pthread_mutex_t zeroinitializer, align 8
@.str.1 = private unnamed_addr constant [29 x i8] c"%s: pthread_mutex_lock(): %m\00", align 1
@__func__.bb_g_init = private unnamed_addr constant [10 x i8] c"bb_g_init\00", align 1
@g_context_cnt = internal global i32 -1, align 4
@slurm_conf = external global %struct.slurm_conf_t, align 8
@bb_plugin_list = internal global ptr null, align 8
@.str.2 = private unnamed_addr constant [2 x i8] c",\00", align 1
@ops = internal global ptr null, align 8
@.str.3 = private unnamed_addr constant [15 x i8] c"burst_buffer.c\00", align 1
@g_context = internal global ptr null, align 8
@.str.4 = private unnamed_addr constant [14 x i8] c"burst_buffer/\00", align 1
@.str.5 = private unnamed_addr constant [16 x i8] c"burst_buffer/%s\00", align 1
@.str.6 = private unnamed_addr constant [32 x i8] c"cannot create %s context for %s\00", align 1
@.str.7 = private unnamed_addr constant [87 x i8] c"%d burst buffer plugins configured; can not run with more than one burst buffer plugin\00", align 1
@.str.8 = private unnamed_addr constant [31 x i8] c"%s: pthread_mutex_unlock(): %m\00", align 1

; Function Attrs: nounwind uwtable
define dso_local i32 @bb_g_init() #0 {
  %1 = alloca i32, align 4
  %2 = alloca ptr, align 8
  %3 = alloca ptr, align 8
  %4 = alloca ptr, align 8
  %5 = alloca ptr, align 8
  %6 = alloca i32, align 4
  %7 = alloca i32, align 4
  call void @llvm.lifetime.start.p0(i64 4, ptr %1) #7
  store i32 0, ptr %1, align 4
  call void @llvm.lifetime.start.p0(i64 8, ptr %2) #7
  store ptr null, ptr %2, align 8
  call void @llvm.lifetime.start.p0(i64 8, ptr %3) #7
  call void @llvm.lifetime.start.p0(i64 8, ptr %4) #7
  store ptr @.str, ptr %4, align 8
  call void @llvm.lifetime.start.p0(i64 8, ptr %5) #7
  br label %8

8:                                                ; preds = %0
  call void @llvm.lifetime.start.p0(i64 4, ptr %6) #7
  %9 = call i32 @pthread_mutex_lock(ptr noundef @g_context_lock) #7
  store i32 %9, ptr %6, align 4
  %10 = load i32, ptr %6, align 4
  %11 = icmp ne i32 %10, 0
  br i1 %11, label %12, label %15

12:                                               ; preds = %8
  %13 = load i32, ptr %6, align 4
  %14 = call ptr @__errno_location() #8
  store i32 %13, ptr %14, align 4
  call void (ptr, ...) @fatal_abort(ptr noundef @.str.1, ptr noundef @__func__.bb_g_init) #9
  unreachable

15:                                               ; preds = %8
  call void @llvm.lifetime.end.p0(i64 4, ptr %6) #7
  br label %16

16:                                               ; preds = %15
  br label %17

17:                                               ; preds = %16
  %18 = load i32, ptr @g_context_cnt, align 4
  %19 = icmp sge i32 %18, 0
  br i1 %19, label %20, label %21

20:                                               ; preds = %17
  br label %88

21:                                               ; preds = %17
  %22 = load ptr, ptr getelementptr inbounds nuw (%struct.slurm_conf_t, ptr @slurm_conf, i32 0, i32 22), align 8
  %23 = call ptr @xstrdup(ptr noundef %22)
  store ptr %23, ptr @bb_plugin_list, align 8
  store i32 0, ptr @g_context_cnt, align 4
  %24 = load ptr, ptr @bb_plugin_list, align 8
  %25 = icmp eq ptr %24, null
  br i1 %25, label %32, label %26

26:                                               ; preds = %21
  %27 = load ptr, ptr @bb_plugin_list, align 8
  %28 = getelementptr inbounds i8, ptr %27, i64 0
  %29 = load i8, ptr %28, align 1
  %30 = sext i8 %29 to i32
  %31 = icmp eq i32 %30, 0
  br i1 %31, label %32, label %33

32:                                               ; preds = %26, %21
  br label %88

33:                                               ; preds = %26
  %34 = load ptr, ptr @bb_plugin_list, align 8
  store ptr %34, ptr %3, align 8
  br label %35

35:                                               ; preds = %78, %33
  %36 = load ptr, ptr %3, align 8
  %37 = call ptr @strtok_r(ptr noundef %36, ptr noundef @.str.2, ptr noundef %2) #7
  store ptr %37, ptr %5, align 8
  %38 = icmp ne ptr %37, null
  br i1 %38, label %39, label %81

39:                                               ; preds = %35
  %40 = load i32, ptr @g_context_cnt, align 4
  %41 = add nsw i32 %40, 1
  %42 = sext i32 %41 to i64
  %43 = call ptr @slurm_xrecalloc(ptr noundef @ops, i64 noundef %42, i64 noundef 160, i1 noundef zeroext true, i1 noundef zeroext false, ptr noundef @.str.3, i32 noundef 147, ptr noundef @__func__.bb_g_init)
  %44 = load i32, ptr @g_context_cnt, align 4
  %45 = add nsw i32 %44, 1
  %46 = sext i32 %45 to i64
  %47 = call ptr @slurm_xrecalloc(ptr noundef @g_context, i64 noundef %46, i64 noundef 8, i1 noundef zeroext true, i1 noundef zeroext false, ptr noundef @.str.3, i32 noundef 149, ptr noundef @__func__.bb_g_init)
  %48 = load ptr, ptr %5, align 8
  %49 = call i32 @xstrncmp(ptr noundef %48, ptr noundef @.str.4, i64 noundef 13)
  %50 = icmp eq i32 %49, 0
  br i1 %50, label %51, label %54

51:                                               ; preds = %39
  %52 = load ptr, ptr %5, align 8
  %53 = getelementptr inbounds i8, ptr %52, i64 13
  store ptr %53, ptr %5, align 8
  br label %54

54:                                               ; preds = %51, %39
  %55 = load ptr, ptr %5, align 8
  %56 = call ptr (ptr, ...) @xstrdup_printf(ptr noundef @.str.5, ptr noundef %55)
  store ptr %56, ptr %5, align 8
  %57 = load ptr, ptr %4, align 8
  %58 = load ptr, ptr %5, align 8
  %59 = load ptr, ptr @ops, align 8
  %60 = load i32, ptr @g_context_cnt, align 4
  %61 = sext i32 %60 to i64
  %62 = getelementptr inbounds %struct.slurm_bb_ops, ptr %59, i64 %61
  %63 = call ptr @plugin_context_create(ptr noundef %57, ptr noundef %58, ptr noundef %62, ptr noundef @syms, i64 noundef 160)
  %64 = load ptr, ptr @g_context, align 8
  %65 = load i32, ptr @g_context_cnt, align 4
  %66 = sext i32 %65 to i64
  %67 = getelementptr inbounds ptr, ptr %64, i64 %66
  store ptr %63, ptr %67, align 8
  %68 = load ptr, ptr @g_context, align 8
  %69 = load i32, ptr @g_context_cnt, align 4
  %70 = sext i32 %69 to i64
  %71 = getelementptr inbounds ptr, ptr %68, i64 %70
  %72 = load ptr, ptr %71, align 8
  %73 = icmp ne ptr %72, null
  br i1 %73, label %78, label %74

74:                                               ; preds = %54
  %75 = load ptr, ptr %4, align 8
  %76 = load ptr, ptr %5, align 8
  %77 = call i32 (ptr, ...) @error(ptr noundef @.str.6, ptr noundef %75, ptr noundef %76)
  store i32 -1, ptr %1, align 4
  call void @slurm_xfree(ptr noundef %5)
  br label %81

78:                                               ; preds = %54
  call void @slurm_xfree(ptr noundef %5)
  %79 = load i32, ptr @g_context_cnt, align 4
  %80 = add nsw i32 %79, 1
  store i32 %80, ptr @g_context_cnt, align 4
  store ptr null, ptr %3, align 8
  br label %35, !llvm.loop !8

81:                                               ; preds = %74, %35
  %82 = load i32, ptr @g_context_cnt, align 4
  %83 = icmp sgt i32 %82, 1
  br i1 %83, label %84, label %87

84:                                               ; preds = %81
  %85 = load i32, ptr @g_context_cnt, align 4
  %86 = call i32 (ptr, ...) @error(ptr noundef @.str.7, i32 noundef %85)
  store i32 -1, ptr %1, align 4
  br label %87

87:                                               ; preds = %84, %81
  br label %88

88:                                               ; preds = %87, %32, %20
  br label %89

89:                                               ; preds = %88
  call void @llvm.lifetime.start.p0(i64 4, ptr %7) #7
  %90 = call i32 @pthread_mutex_unlock(ptr noundef @g_context_lock) #7
  store i32 %90, ptr %7, align 4
  %91 = load i32, ptr %7, align 4
  %92 = icmp ne i32 %91, 0
  br i1 %92, label %93, label %96

93:                                               ; preds = %89
  %94 = load i32, ptr %7, align 4
  %95 = call ptr @__errno_location() #8
  store i32 %94, ptr %95, align 4
  call void (ptr, ...) @fatal_abort(ptr noundef @.str.8, ptr noundef @__func__.bb_g_init) #9
  unreachable

96:                                               ; preds = %89
  call void @llvm.lifetime.end.p0(i64 4, ptr %7) #7
  br label %97

97:                                               ; preds = %96
  br label %98

98:                                               ; preds = %97
  %99 = load i32, ptr %1, align 4
  %100 = icmp ne i32 %99, 0
  br i1 %100, label %101, label %103

101:                                              ; preds = %98
  %102 = call i32 @bb_g_fini()
  br label %103

103:                                              ; preds = %101, %98
  %104 = load i32, ptr %1, align 4
  call void @llvm.lifetime.end.p0(i64 8, ptr %5) #7
  call void @llvm.lifetime.end.p0(i64 8, ptr %4) #7
  call void @llvm.lifetime.end.p0(i64 8, ptr %3) #7
  call void @llvm.lifetime.end.p0(i64 8, ptr %2) #7
  call void @llvm.lifetime.end.p0(i64 4, ptr %1) #7
  ret i32 %104
}