; Function Attrs: nounwind uwtable
define dso_local range(i32 -1, 1) i32 @bb_g_init() local_unnamed_addr #0 {
  %1 = alloca ptr, align 8
  %2 = alloca ptr, align 8
  call void @llvm.lifetime.start.p0(i64 8, ptr nonnull %1) #11
  store ptr null, ptr %1, align 8
  call void @llvm.lifetime.start.p0(i64 8, ptr nonnull %2) #11
  %3 = tail call i32 @pthread_mutex_lock(ptr noundef nonnull @g_context_lock) #11
  %.not = icmp eq i32 %3, 0
  br i1 %.not, label %6, label %4

4:                                                ; preds = %0
  %5 = tail call ptr @__errno_location() #12
  store i32 %3, ptr %5, align 4
  tail call void (ptr, ...) @fatal_abort(ptr noundef nonnull @.str.1, ptr noundef nonnull @__func__.bb_g_init) #13
  unreachable

6:                                                ; preds = %0
  %7 = load i32, ptr @g_context_cnt, align 4
  %8 = icmp sgt i32 %7, -1
  br i1 %8, label %54, label %9

9:                                                ; preds = %6
  %10 = load ptr, ptr getelementptr inbounds nuw (i8, ptr @slurm_conf, i64 176), align 8
  %11 = tail call ptr @xstrdup(ptr noundef %10) #11
  store ptr %11, ptr @bb_plugin_list, align 8
  store i32 0, ptr @g_context_cnt, align 4
  %12 = icmp eq ptr %11, null
  br i1 %12, label %54, label %13

13:                                               ; preds = %9
  %14 = load i8, ptr %11, align 1
  %15 = icmp eq i8 %14, 0
  br i1 %15, label %54, label %.preheader

.preheader:                                       ; preds = %13
  %16 = call ptr @strtok_r(ptr noundef nonnull %11, ptr noundef nonnull @.str.2, ptr noundef nonnull %1) #11
  store ptr %16, ptr %2, align 8
  %.not1325 = icmp eq ptr %16, null
  br i1 %.not1325, label %.loopexit, label %.lr.ph

.lr.ph:                                           ; preds = %.preheader, %48
  %17 = load i32, ptr @g_context_cnt, align 4
  %18 = add nsw i32 %17, 1
  %19 = sext i32 %18 to i64
  %20 = call ptr @slurm_xrecalloc(ptr noundef nonnull @ops, i64 noundef %19, i64 noundef 160, i1 noundef zeroext true, i1 noundef zeroext false, ptr noundef nonnull @.str.3, i32 noundef 147, ptr noundef nonnull @__func__.bb_g_init) #11
  %21 = load i32, ptr @g_context_cnt, align 4
  %22 = add nsw i32 %21, 1
  %23 = sext i32 %22 to i64
  %24 = call ptr @slurm_xrecalloc(ptr noundef nonnull @g_context, i64 noundef %23, i64 noundef 8, i1 noundef zeroext true, i1 noundef zeroext false, ptr noundef nonnull @.str.3, i32 noundef 149, ptr noundef nonnull @__func__.bb_g_init) #11
  %25 = load ptr, ptr %2, align 8
  %26 = call i32 @xstrncmp(ptr noundef %25, ptr noundef nonnull @.str.4, i64 noundef 13) #11
  %27 = icmp eq i32 %26, 0
  %.pre = load ptr, ptr %2, align 8
  br i1 %27, label %28, label %30

28:                                               ; preds = %.lr.ph
  %29 = getelementptr inbounds nuw i8, ptr %.pre, i64 13
  store ptr %29, ptr %2, align 8
  br label %30

30:                                               ; preds = %28, %.lr.ph
  %31 = phi ptr [ %29, %28 ], [ %.pre, %.lr.ph ]
  %32 = call ptr (ptr, ...) @xstrdup_printf(ptr noundef nonnull @.str.5, ptr noundef %31) #11
  store ptr %32, ptr %2, align 8
  %33 = load ptr, ptr @ops, align 8
  %34 = load i32, ptr @g_context_cnt, align 4
  %35 = sext i32 %34 to i64
  %36 = getelementptr inbounds %struct.slurm_bb_ops, ptr %33, i64 %35
  %37 = call ptr @plugin_context_create(ptr noundef nonnull @.str, ptr noundef %32, ptr noundef %36, ptr noundef nonnull @syms, i64 noundef 160) #11
  %38 = load ptr, ptr @g_context, align 8
  %39 = load i32, ptr @g_context_cnt, align 4
  %40 = sext i32 %39 to i64
  %41 = getelementptr inbounds ptr, ptr %38, i64 %40
  store ptr %37, ptr %41, align 8
  %42 = load ptr, ptr @g_context, align 8
  %43 = getelementptr inbounds ptr, ptr %42, i64 %40
  %44 = load ptr, ptr %43, align 8
  %.not14 = icmp eq ptr %44, null
  br i1 %.not14, label %45, label %48

45:                                               ; preds = %30
  %46 = load ptr, ptr %2, align 8
  %47 = call i32 (ptr, ...) @error(ptr noundef nonnull @.str.6, ptr noundef nonnull @.str, ptr noundef %46) #11
  call void @slurm_xfree(ptr noundef nonnull %2) #11
  br label %.loopexit

48:                                               ; preds = %30
  call void @slurm_xfree(ptr noundef nonnull %2) #11
  %49 = load i32, ptr @g_context_cnt, align 4
  %50 = add nsw i32 %49, 1
  store i32 %50, ptr @g_context_cnt, align 4
  %51 = call ptr @strtok_r(ptr noundef null, ptr noundef nonnull @.str.2, ptr noundef nonnull %1) #11
  store ptr %51, ptr %2, align 8
  %.not13 = icmp eq ptr %51, null
  br i1 %.not13, label %.loopexit, label %.lr.ph, !llvm.loop !8

.loopexit:                                        ; preds = %48, %.preheader, %45
  %.0 = phi i32 [ -1, %45 ], [ 0, %.preheader ], [ 0, %48 ]
  %52 = load i32, ptr @g_context_cnt, align 4
  %53 = icmp sgt i32 %52, 1
  br i1 %53, label %.thread, label %54

54:                                               ; preds = %6, %13, %9, %.loopexit
  %.1 = phi i32 [ 0, %6 ], [ 0, %9 ], [ 0, %13 ], [ %.0, %.loopexit ]
  %55 = call i32 @pthread_mutex_unlock(ptr noundef nonnull @g_context_lock) #11
  %.not15 = icmp eq i32 %55, 0
  br i1 %.not15, label %61, label %58

.thread:                                          ; preds = %.loopexit
  %56 = call i32 (ptr, ...) @error(ptr noundef nonnull @.str.7, i32 noundef %52) #11
  %57 = call i32 @pthread_mutex_unlock(ptr noundef nonnull @g_context_lock) #11
  %.not1518 = icmp eq i32 %57, 0
  br i1 %.not1518, label %.thread20, label %58

58:                                               ; preds = %.thread, %54
  %59 = phi i32 [ %57, %.thread ], [ %55, %54 ]
  %60 = tail call ptr @__errno_location() #12
  store i32 %59, ptr %60, align 4
  call void (ptr, ...) @fatal_abort(ptr noundef nonnull @.str.8, ptr noundef nonnull @__func__.bb_g_init) #13
  unreachable

61:                                               ; preds = %54
  %.not16 = icmp eq i32 %.1, 0
  br i1 %.not16, label %63, label %.thread20

.thread20:                                        ; preds = %.thread, %61
  %62 = call i32 @bb_g_fini()
  br label %63

63:                                               ; preds = %.thread20, %61
  %.11924 = phi i32 [ -1, %.thread20 ], [ 0, %61 ]
  call void @llvm.lifetime.end.p0(i64 8, ptr nonnull %2) #11
  call void @llvm.lifetime.end.p0(i64 8, ptr nonnull %1) #11
  ret i32 %.11924
}